(lp0
(lp1
I1
aI2
aI3
aI3
aI4
aa(lp2
I1
aI2
aI3
aI4
aI3
aa(lp3
I1
aI3
aI3
aI4
aI4
aa(lp4
I2
aI2
aI3
aI3
aI3
aa(lp5
I2
aI3
aI3
aI3
aI4
aa(lp6
I1
aI3
aI3
aI4
aI2
aa(lp7
I2
aI3
aI3
aI4
aI3
aa(lp8
I1
aI3
aI3
aI3
aI3
aa(lp9
I1
aI3
aI4
aI4
aI3
aa(lp10
I3
aI3
aI3
aI4
aI2
aa(lp11
I2
aI3
aI3
aI3
aI2
aa.