(lp0
(lp1
I2
aI2
aI3
aI4
aI2
aa(lp2
I2
aI3
aI3
aI3
aI2
aa(lp3
I2
aI3
aI4
aI4
aI2
aa(lp4
I2
aI2
aI2
aI3
aI4
aa(lp5
I2
aI2
aI3
aI3
aI3
aa(lp6
I2
aI2
aI4
aI4
aI3
aa(lp7
I2
aI2
aI3
aI4
aI4
aa(lp8
I2
aI2
aI2
aI4
aI3
aa(lp9
I3
aI3
aI3
aI3
aI3
aa.